; Function Attrs: mustprogress nounwind uwtable
define hidden void @_ZN14ZRelocateQueue18synchronize_threadEv(ptr noundef nonnull align 8 dereferenceable(120) %0) local_unnamed_addr #1 align 2 {
  %2 = getelementptr inbounds i8, ptr %0, i64 108
  %3 = load i32, ptr %2, align 4
  %4 = add i32 %3, 1
  store i32 %4, ptr %2, align 4
  %5 = load volatile ptr, ptr getelementptr inbounds (i8, ptr @_ZN16LogTagSetMappingILN6LogTag4typeE49ELS1_129ELS1_0ELS1_0ELS1_0ELS1_0EE7_tagsetE, i64 56), align 8
  %.not = icmp eq ptr %5, null
  br i1 %.not, label %7, label %6

6:                                                ; preds = %1
  tail call void (ptr, ...) @_ZN7LogImplILN6LogTag4typeE49ELS1_129ELS1_0ELS1_0ELS1_0ELS1_0EE5writeILN8LogLevel4typeE2EEEvPKcz(ptr noundef nonnull @.str.10, i32 noundef %4)
  %.pre = load i32, ptr %2, align 4
  br label %7

7:                                                ; preds = %1, %6
  %8 = phi i32 [ %4, %1 ], [ %.pre, %6 ]
  %9 = getelementptr inbounds i8, ptr %0, i64 104
  %10 = load i32, ptr %9, align 8
  %11 = icmp eq i32 %8, %10
  br i1 %11, label %12, label %15

12:                                               ; preds = %7
  %13 = getelementptr inbounds i8, ptr %0, i64 40
  %14 = tail call i32 @pthread_cond_broadcast(ptr noundef nonnull %13) #14
  br label %15

15:                                               ; preds = %12, %7
  ret void
}